target datalayout = "e-m:e-p270:32:32-p271:32:32-p272:64:64-i64:64-i128:128-f80:128-n8:16:32:64-S128"
target triple = "x86_64-pc-linux-gnu"

%struct.stbtt__hheap = type { ptr, ptr, i32 }
%struct.stbtt__hheap_chunk = type { ptr }

; Function Attrs: nounwind uwtable
define void @stbtt__hheap_cleanup(ptr noundef %0, ptr noundef %1) #0 {
  %3 = alloca ptr, align 8
  %4 = alloca ptr, align 8
  %5 = alloca ptr, align 8
  %6 = alloca ptr, align 8
  store ptr %0, ptr %3, align 8, !tbaa !104
  store ptr %1, ptr %4, align 8, !tbaa !3
  call void @llvm.lifetime.start.p0(i64 8, ptr %5) #8
  %7 = load ptr, ptr %3, align 8, !tbaa !104
  %8 = getelementptr inbounds nuw %struct.stbtt__hheap, ptr %7, i32 0, i32 0
  %9 = load ptr, ptr %8, align 8, !tbaa !111
  store ptr %9, ptr %5, align 8, !tbaa !110
  br label %10

10:                                               ; preds = %13, %2
  %11 = load ptr, ptr %5, align 8, !tbaa !110
  %12 = icmp ne ptr %11, null
  br i1 %12, label %13, label %19

13:                                               ; preds = %10
  call void @llvm.lifetime.start.p0(i64 8, ptr %6) #8
  %14 = load ptr, ptr %5, align 8, !tbaa !110
  %15 = getelementptr inbounds nuw %struct.stbtt__hheap_chunk, ptr %14, i32 0, i32 0
  %16 = load ptr, ptr %15, align 8, !tbaa !112
  store ptr %16, ptr %6, align 8, !tbaa !110
  %17 = load ptr, ptr %5, align 8, !tbaa !110
  call void @free(ptr noundef %17) #8
  %18 = load ptr, ptr %6, align 8, !tbaa !110
  store ptr %18, ptr %5, align 8, !tbaa !110
  call void @llvm.lifetime.end.p0(i64 8, ptr %6) #8
  br label %10, !llvm.loop !114

19:                                               ; preds = %10
  call void @llvm.lifetime.end.p0(i64 8, ptr %5) #8
  ret void
}