; Function Attrs: nounwind uwtable
define void @stbtt__hheap_cleanup(ptr noundef readonly captures(none) %0, ptr noundef readnone captures(none) %1) local_unnamed_addr #11 {
  %3 = load ptr, ptr %0, align 8, !tbaa !96
  %.not5 = icmp eq ptr %3, null
  br i1 %.not5, label %._crit_edge, label %.lr.ph

.lr.ph:                                           ; preds = %2, %.lr.ph
  %.06 = phi ptr [ %4, %.lr.ph ], [ %3, %2 ]
  %4 = load ptr, ptr %.06, align 8, !tbaa !97
  tail call void @free(ptr noundef nonnull %.06) #32
  %.not = icmp eq ptr %4, null
  br i1 %.not, label %._crit_edge, label %.lr.ph, !llvm.loop !99

._crit_edge:                                      ; preds = %.lr.ph, %2
  ret void
}